; Function Attrs: nounwind uwtable
define ptr @l_Lean_forEachModuleInDir___rarg___lambda__2(ptr noundef %0, ptr noundef %1, ptr noundef %2, ptr noundef %3, ptr noundef %4) #0 {
  %6 = getelementptr i8, ptr %4, i64 8
  %.val = load i64, ptr %6, align 8, !tbaa !8
  %7 = ptrtoint ptr %4 to i64
  %8 = and i64 %7, 1
  %.not = icmp eq i64 %8, 0
  br i1 %.not, label %9, label %lean_inc.exit23

9:                                                ; preds = %5
  %.val.i = load i32, ptr %4, align 4, !tbaa !10
  %10 = icmp sgt i32 %.val.i, 0
  br i1 %10, label %11, label %13, !prof !13

11:                                               ; preds = %9
  %12 = add nuw i32 %.val.i, 1
  store i32 %12, ptr %4, align 4, !tbaa !10
  br label %lean_inc.exit23

13:                                               ; preds = %9
  %.not.i = icmp eq i32 %.val.i, 0
  br i1 %.not.i, label %lean_inc.exit23, label %14

14:                                               ; preds = %13
  tail call void @lean_inc_ref_cold(ptr noundef nonnull %4) #4
  br label %lean_inc.exit23

lean_inc.exit23:                                  ; preds = %14, %13, %11, %5
  %15 = ptrtoint ptr %3 to i64
  %16 = and i64 %15, 1
  %.not33 = icmp eq i64 %16, 0
  br i1 %.not33, label %17, label %lean_inc.exit22

17:                                               ; preds = %lean_inc.exit23
  %.val.i24 = load i32, ptr %3, align 4, !tbaa !10
  %18 = icmp sgt i32 %.val.i24, 0
  br i1 %18, label %19, label %21, !prof !13

19:                                               ; preds = %17
  %20 = add nuw i32 %.val.i24, 1
  store i32 %20, ptr %3, align 4, !tbaa !10
  br label %lean_inc.exit22

21:                                               ; preds = %17
  %.not.i25 = icmp eq i32 %.val.i24, 0
  br i1 %.not.i25, label %lean_inc.exit22, label %22

22:                                               ; preds = %21
  tail call void @lean_inc_ref_cold(ptr noundef nonnull %3) #4
  br label %lean_inc.exit22

lean_inc.exit22:                                  ; preds = %22, %21, %19, %lean_inc.exit23
  %23 = ptrtoint ptr %1 to i64
  %24 = and i64 %23, 1
  %.not34 = icmp eq i64 %24, 0
  br i1 %.not34, label %25, label %lean_inc.exit21

25:                                               ; preds = %lean_inc.exit22
  %.val.i27 = load i32, ptr %1, align 4, !tbaa !10
  %26 = icmp sgt i32 %.val.i27, 0
  br i1 %26, label %27, label %29, !prof !13

27:                                               ; preds = %25
  %28 = add nuw i32 %.val.i27, 1
  store i32 %28, ptr %1, align 4, !tbaa !10
  br label %lean_inc.exit21

29:                                               ; preds = %25
  %.not.i28 = icmp eq i32 %.val.i27, 0
  br i1 %.not.i28, label %lean_inc.exit21, label %30

30:                                               ; preds = %29
  tail call void @lean_inc_ref_cold(ptr noundef nonnull %1) #4
  br label %lean_inc.exit21

lean_inc.exit21:                                  ; preds = %30, %29, %27, %lean_inc.exit22
  %31 = ptrtoint ptr %0 to i64
  %32 = and i64 %31, 1
  %.not35 = icmp eq i64 %32, 0
  br i1 %.not35, label %33, label %lean_inc.exit

33:                                               ; preds = %lean_inc.exit21
  %.val.i30 = load i32, ptr %0, align 4, !tbaa !10
  %34 = icmp sgt i32 %.val.i30, 0
  br i1 %34, label %35, label %37, !prof !13

35:                                               ; preds = %33
  %36 = add nuw i32 %.val.i30, 1
  store i32 %36, ptr %0, align 4, !tbaa !10
  br label %lean_inc.exit

37:                                               ; preds = %33
  %.not.i31 = icmp eq i32 %.val.i30, 0
  br i1 %.not.i31, label %lean_inc.exit, label %38

38:                                               ; preds = %37
  tail call void @lean_inc_ref_cold(ptr noundef nonnull %0) #4
  br label %lean_inc.exit

lean_inc.exit:                                    ; preds = %38, %37, %35, %lean_inc.exit21
  %39 = tail call ptr @l_Array_forIn_x27Unsafe_loop___at_Lean_forEachModuleInDir___spec__2___rarg(ptr noundef %0, ptr noundef %1, ptr noundef %2, ptr noundef %3, ptr noundef %1, ptr noundef nonnull %4, ptr noundef nonnull inttoptr (i64 1 to ptr), ptr noundef nonnull %4, i64 noundef %.val, i64 noundef 0, ptr noundef nonnull inttoptr (i64 1 to ptr))
  tail call void @lean_inc_heartbeat() #4
  %40 = tail call noalias ptr @mi_malloc_small(i64 noundef 32) #4
  %41 = icmp eq ptr %40, null
  br i1 %41, label %42, label %lean_alloc_closure.exit

42:                                               ; preds = %lean_inc.exit
  tail call void @lean_internal_panic_out_of_memory() #5
  unreachable

lean_alloc_closure.exit:                          ; preds = %lean_inc.exit
  %43 = getelementptr inbounds nuw i8, ptr %40, i64 4
  store i32 1, ptr %40, align 4, !tbaa !10
  store i32 -184549344, ptr %43, align 4
  %44 = getelementptr inbounds nuw i8, ptr %40, i64 8
  store ptr @l_Lean_forEachModuleInDir___rarg___lambda__1___boxed, ptr %44, align 8, !tbaa !4
  %45 = getelementptr inbounds nuw i8, ptr %40, i64 16
  store i16 2, ptr %45, align 8, !tbaa !14
  %46 = getelementptr inbounds nuw i8, ptr %40, i64 18
  store i16 1, ptr %46, align 2, !tbaa !14
  %47 = getelementptr inbounds nuw i8, ptr %40, i64 24
  store ptr %0, ptr %47, align 8, !tbaa !4
  %48 = tail call ptr @lean_apply_4(ptr noundef %3, ptr noundef nonnull inttoptr (i64 1 to ptr), ptr noundef nonnull inttoptr (i64 1 to ptr), ptr noundef %39, ptr noundef nonnull %40) #4
  ret ptr %48
}